; Function Attrs: nounwind uwtable
define hidden i32 @lsarpc_dissect_bitmap_lsa_krbAuthenticationOptions(ptr noundef %0, i32 noundef %1, ptr noundef %2, ptr noundef %3, ptr noundef %4, ptr noundef %5, i32 noundef %6, i32 %7) local_unnamed_addr #0 {
  %9 = alloca i32, align 4
  %10 = getelementptr inbounds nuw i8, ptr %4, i64 28
  %11 = load i32, ptr %10, align 4
  %.not = icmp ne i32 %11, 0
  %12 = and i32 %1, 3
  %.not17 = icmp eq i32 %12, 0
  %or.cond = or i1 %.not17, %.not
  %13 = and i32 %1, -4
  %14 = add i32 %13, 4
  %.0 = select i1 %or.cond, i32 %1, i32 %14
  %15 = load i32, ptr @ett_lsarpc_lsa_krbAuthenticationOptions, align 4
  %16 = load i8, ptr %5, align 1
  %17 = and i8 %16, 16
  %18 = zext nneg i8 %17 to i32
  %19 = shl nuw i32 %18, 27
  %20 = tail call ptr @proto_tree_add_bitmask_with_flags(ptr noundef %3, ptr noundef %0, i32 noundef %.0, i32 noundef %6, i32 noundef %15, ptr noundef nonnull @lsarpc_dissect_bitmap_lsa_krbAuthenticationOptions.lsarpc_lsa_krbAuthenticationOptions_fields, i32 noundef %19, i32 noundef 4) #5
  %21 = call i32 @dissect_ndr_uint32(ptr noundef %0, i32 noundef %.0, ptr noundef %2, ptr noundef %3, ptr noundef %4, ptr noundef nonnull %5, i32 noundef -1, ptr noundef nonnull %9) #5
  %22 = load i32, ptr %9, align 4
  %.not19 = icmp eq i32 %22, 0
  br i1 %.not19, label %23, label %24

23:                                               ; preds = %8
  call void (ptr, ptr, ...) @proto_item_append_text(ptr noundef %20, ptr noundef nonnull @.str.94) #5
  %.pre = load i32, ptr %9, align 4
  br label %24

24:                                               ; preds = %23, %8
  %25 = phi i32 [ %.pre, %23 ], [ %22, %8 ]
  %26 = and i32 %25, -129
  %.not20 = icmp eq i32 %26, 0
  br i1 %.not20, label %28, label %27

27:                                               ; preds = %24
  store i32 %26, ptr %9, align 4
  call void (ptr, ptr, ...) @proto_item_append_text(ptr noundef %20, ptr noundef nonnull @.str.95, i32 noundef %26) #5
  br label %28

28:                                               ; preds = %27, %24
  ret i32 %21
}